	.file	"main.c"
	.text
.Ltext0:
	.section	.rodata
.LC0:
	.string	"fue leido de a.txt \n"
	.text
	.globl	main
	.type	main, @function
main:
.LFB0:
	.file 1 "main.c"
	.loc 1 7 40
	.cfi_startproc
	leal	4(%esp), %ecx
	.cfi_def_cfa 1, 0
	andl	$-16, %esp
	pushl	-4(%ecx)
	pushl	%ebp
	.cfi_escape 0x10,0x5,0x2,0x75,0
	movl	%esp, %ebp
	pushl	%esi
	pushl	%ebx
	pushl	%ecx
	.cfi_escape 0xf,0x3,0x75,0x74,0x6
	.cfi_escape 0x10,0x6,0x2,0x75,0x7c
	.cfi_escape 0x10,0x3,0x2,0x75,0x78
	subl	$60, %esp
	call	__x86.get_pc_thunk.bx
	addl	$_GLOBAL_OFFSET_TABLE_, %ebx
	movl	%ecx, %esi
	.loc 1 10 8
	movl	$1819043144, -61(%ebp)
	movl	$842080367, -57(%ebp)
	movw	$13363, -53(%ebp)
	movb	$0, -51(%ebp)
	.loc 1 11 6
	cmpl	$4, (%esi)
	je	.L2
	.loc 1 12 12
	movl	$-7, %eax
	jmp	.L11
.L2:
	.loc 1 15 24
	movl	4(%esi), %eax
	addl	$4, %eax
	.loc 1 15 14
	movl	(%eax), %eax
	subl	$12, %esp
	pushl	%eax
	call	openf@PLT
	addl	$16, %esp
	movl	%eax, -28(%ebp)
	.loc 1 16 8
	cmpl	$0, -28(%ebp)
	jns	.L4
	.loc 1 16 24 discriminator 1
	movl	-28(%ebp), %eax
	jmp	.L11
.L4:
	.loc 1 17 23
	movl	4(%esi), %eax
	addl	$8, %eax
	.loc 1 17 13
	movl	(%eax), %eax
	subl	$12, %esp
	pushl	%eax
	call	openf@PLT
	addl	$16, %esp
	movl	%eax, -32(%ebp)
	.loc 1 18 8
	cmpl	$0, -32(%ebp)
	jns	.L5
	.loc 1 18 24 discriminator 1
	movl	-32(%ebp), %eax
	jmp	.L11
.L5:
	.loc 1 19 24
	movl	4(%esi), %eax
	addl	$12, %eax
	.loc 1 19 14
	movl	(%eax), %eax
	subl	$12, %esp
	pushl	%eax
	call	openf@PLT
	addl	$16, %esp
	movl	%eax, -36(%ebp)
	.loc 1 20 8
	cmpl	$0, -36(%ebp)
	jns	.L6
	.loc 1 20 24 discriminator 1
	movl	-36(%ebp), %eax
	jmp	.L11
.L6:
	.loc 1 24 16
	subl	$4, %esp
	pushl	$10
	leal	-61(%ebp), %eax
	pushl	%eax
	pushl	-28(%ebp)
	call	read@PLT
	addl	$16, %esp
	movl	%eax, -40(%ebp)
	.loc 1 25 8
	cmpl	$0, -40(%ebp)
	jns	.L7
	.loc 1 25 26 discriminator 1
	movl	-40(%ebp), %eax
	jmp	.L11
.L7:
	.loc 1 26 12
	subl	$4, %esp
	pushl	$10
	leal	-50(%ebp), %eax
	pushl	%eax
	pushl	-32(%ebp)
	call	read@PLT
	addl	$16, %esp
	movl	%eax, -40(%ebp)
	.loc 1 27 8
	cmpl	$0, -40(%ebp)
	jns	.L8
	.loc 1 27 26 discriminator 1
	movl	-40(%ebp), %eax
	jmp	.L11
.L8:
	.loc 1 28 5
	subl	$4, %esp
	pushl	$10
	leal	-61(%ebp), %eax
	pushl	%eax
	pushl	$1
	call	write@PLT
	addl	$16, %esp
	.loc 1 29 5
	subl	$4, %esp
	pushl	$20
	leal	.LC0@GOTOFF(%ebx), %eax
	pushl	%eax
	pushl	$1
	call	write@PLT
	addl	$16, %esp
	.loc 1 31 12
	subl	$4, %esp
	pushl	$10
	leal	-61(%ebp), %eax
	pushl	%eax
	pushl	-36(%ebp)
	call	write@PLT
	addl	$16, %esp
	movl	%eax, -40(%ebp)
	.loc 1 32 8
	cmpl	$0, -40(%ebp)
	jns	.L9
	.loc 1 32 26 discriminator 1
	movl	-40(%ebp), %eax
	jmp	.L11
.L9:
	.loc 1 33 12
	subl	$4, %esp
	pushl	$10
	leal	-50(%ebp), %eax
	pushl	%eax
	pushl	-36(%ebp)
	call	write@PLT
	addl	$16, %esp
	movl	%eax, -40(%ebp)
	.loc 1 34 8
	cmpl	$0, -40(%ebp)
	jns	.L10
	.loc 1 34 26 discriminator 1
	movl	-40(%ebp), %eax
	jmp	.L11
.L10:
	.loc 1 36 5
	subl	$12, %esp
	pushl	-28(%ebp)
	call	closef@PLT
	addl	$16, %esp
	.loc 1 37 5
	subl	$12, %esp
	pushl	-32(%ebp)
	call	closef@PLT
	addl	$16, %esp
	.loc 1 38 5
	subl	$12, %esp
	pushl	-36(%ebp)
	call	closef@PLT
	addl	$16, %esp
	.loc 1 40 12
	movl	$0, %eax
.L11:
	.loc 1 41 1 discriminator 1
	leal	-12(%ebp), %esp
	popl	%ecx
	.cfi_restore 1
	.cfi_def_cfa 1, 0
	popl	%ebx
	.cfi_restore 3
	popl	%esi
	.cfi_restore 6
	popl	%ebp
	.cfi_restore 5
	leal	-4(%ecx), %esp
	.cfi_def_cfa 4, 4
	ret
	.cfi_endproc
.LFE0:
	.size	main, .-main
	.section	.text.__x86.get_pc_thunk.bx,"axG",@progbits,__x86.get_pc_thunk.bx,comdat
	.globl	__x86.get_pc_thunk.bx
	.hidden	__x86.get_pc_thunk.bx
	.type	__x86.get_pc_thunk.bx, @function
__x86.get_pc_thunk.bx:
.LFB1:
	.cfi_startproc
	movl	(%esp), %ebx
	ret
	.cfi_endproc
.LFE1:
	.text
.Letext0:
	.section	.note.GNU-stack,"",@progbits
